; Function Attrs: mustprogress uwtable
define void @_ZN3vcg8AxisMode5ApplyEPNS_9TrackballEf(ptr nocapture noundef nonnull readonly align 8 dereferenceable(32) %0, ptr noundef nonnull %1, float noundef %2) unnamed_addr #3 align 2 {
  %4 = getelementptr inbounds i8, ptr %0, i64 20
  %5 = fdiv float %2, 1.000000e+01
  %6 = load <2 x float>, ptr %4, align 4
  %7 = insertelement <2 x float> poison, float %5, i64 0
  %8 = shufflevector <2 x float> %7, <2 x float> poison, <2 x i32> zeroinitializer
  %9 = fmul <2 x float> %8, %6
  %10 = getelementptr inbounds i8, ptr %0, i64 28
  %11 = load float, ptr %10, align 4
  %12 = fmul float %5, %11
  tail call void @_ZN3vcg9Trackball9TranslateENS_6Point3IfEE(ptr noundef nonnull align 8 dereferenceable(597) %1, <2 x float> %9, float %12)
  ret void
}